target datalayout = "e-m:e-p270:32:32-p271:32:32-p272:64:64-i64:64-i128:128-f80:128-n8:16:32:64-S128"
target triple = "x86_64-pc-linux-gnu"

%struct.AVCodecContext = type { ptr, i32, i32, ptr, i32, i32, ptr, ptr, ptr, i64, i32, i32, ptr, i32, %struct.AVRational, %struct.AVRational, %struct.AVRational, i32, i32, i32, i32, i32, %struct.AVRational, i32, i32, i32, i32, i32, i32, i32, i32, i32, i32, i32, ptr, ptr, i32, float, float, float, float, float, float, float, float, float, i32, i32, i32, i32, i32, i32, i32, i32, i32, i32, i32, i32, ptr, ptr, ptr, i32, i32, i32, i32, i32, i32, i32, i32, i32, i32, %struct.AVChannelLayout, i32, i32, i32, i32, i32, i32, i32, i32, ptr, i32, i32, i32, float, float, i32, i32, i32, i32, i32, ptr, i64, i64, float, float, i32, i32, ptr, ptr, i32, i32, i32, i32, i32, ptr, ptr, ptr, ptr, i32, i32, [8 x i64], i32, i32, i32, i32, i32, i32, i32, ptr, ptr, i32, i32, i32, i32, i32, i32, i32, i32, i32, i32, ptr, ptr, i32, i32, ptr, ptr, ptr, ptr, i32, i32, i64, i32, i32, i64, ptr, i64, ptr, i32, ptr, i32 }
%struct.AVRational = type { i32, i32 }
%struct.AVChannelLayout = type { i32, i32, %union.anon.1, ptr }
%union.anon.1 = type { i64 }
%struct.MovTextContext = type { ptr, ptr, %struct.HighlightBox, %struct.HilightcolorBox, ptr, %struct.TextWrapBox, %struct.MovTextDefault, i8, i16, i16, i32, i32, i32 }
%struct.HighlightBox = type { i16, i16 }
%struct.HilightcolorBox = type { [4 x i8] }
%struct.TextWrapBox = type { i8 }
%struct.MovTextDefault = type { %struct.StyleBox, ptr, i32, i8, i32 }
%struct.StyleBox = type { i16, i16, i8, i8, i8, i8, i32, i8, i8, i16 }

; Function Attrs: nounwind uwtable
define internal void @mov_text_cleanup(ptr noundef %0) #1 {
  %2 = alloca ptr, align 8
  store ptr %0, ptr %2, align 8, !tbaa !29
  %3 = load ptr, ptr %2, align 8, !tbaa !29
  %4 = getelementptr inbounds nuw %struct.MovTextContext, ptr %3, i32 0, i32 7
  %5 = load i8, ptr %4, align 8, !tbaa !60
  %6 = zext i8 %5 to i32
  %7 = and i32 %6, 1
  %8 = icmp ne i32 %7, 0
  br i1 %8, label %9, label %14

9:                                                ; preds = %1
  %10 = load ptr, ptr %2, align 8, !tbaa !29
  %11 = getelementptr inbounds nuw %struct.MovTextContext, ptr %10, i32 0, i32 1
  call void @av_freep(ptr noundef %11)
  %12 = load ptr, ptr %2, align 8, !tbaa !29
  %13 = getelementptr inbounds nuw %struct.MovTextContext, ptr %12, i32 0, i32 8
  store i16 0, ptr %13, align 2, !tbaa !59
  br label %14

14:                                               ; preds = %9, %1
  ret void
}

; Function Attrs: cold nounwind optsize uwtable
define internal i32 @mov_text_decode_close(ptr noundef %0) #0 {
  %2 = alloca ptr, align 8
  %3 = alloca ptr, align 8
  store ptr %0, ptr %2, align 8, !tbaa !4
  call void @llvm.lifetime.start.p0(i64 8, ptr %3) #8
  %4 = load ptr, ptr %2, align 8, !tbaa !4
  %5 = getelementptr inbounds nuw %struct.AVCodecContext, ptr %4, i32 0, i32 6
  %6 = load ptr, ptr %5, align 8, !tbaa !9
  store ptr %6, ptr %3, align 8, !tbaa !29
  %7 = load ptr, ptr %3, align 8, !tbaa !29
  call void @mov_text_cleanup_ftab(ptr noundef %7)
  %8 = load ptr, ptr %3, align 8, !tbaa !29
  call void @mov_text_cleanup(ptr noundef %8)
  call void @llvm.lifetime.end.p0(i64 8, ptr %3) #8
  ret i32 0
}