; Function Attrs: cold nounwind optsize uwtable
define internal noundef i32 @mov_text_decode_close(ptr noundef readonly captures(none) %0) #0 {
  %2 = getelementptr inbounds nuw i8, ptr %0, i64 32
  %3 = load ptr, ptr %2, align 8, !tbaa !4
  tail call fastcc void @mov_text_cleanup_ftab(ptr noundef %3)
  %4 = getelementptr inbounds nuw i8, ptr %3, i64 80
  %5 = load i8, ptr %4, align 8, !tbaa !62
  %6 = and i8 %5, 1
  %.not.i = icmp eq i8 %6, 0
  br i1 %.not.i, label %mov_text_cleanup.exit, label %7

7:                                                ; preds = %1
  %8 = getelementptr inbounds nuw i8, ptr %3, i64 8
  tail call void @av_freep(ptr noundef nonnull %8) #8
  %9 = getelementptr inbounds nuw i8, ptr %3, i64 82
  store i16 0, ptr %9, align 2, !tbaa !63
  br label %mov_text_cleanup.exit

mov_text_cleanup.exit:                            ; preds = %1, %7
  ret i32 0
}